target datalayout = "e-m:e-p270:32:32-p271:32:32-p272:64:64-i64:64-i128:128-f80:128-n8:16:32:64-S128"
target triple = "x86_64-pc-linux-gnu"

%struct.Codebook = type { i32, i32, ptr, float, float, i8, i8, i8, i8, i32, ptr, ptr, [1024 x i16], ptr, ptr, i32 }

; Function Attrs: nounwind uwtable
define i32 @bit_reverse(i32 noundef %0) #0 {
  %2 = alloca i32, align 4
  store i32 %0, ptr %2, align 4, !tbaa !8
  %3 = load i32, ptr %2, align 4, !tbaa !8
  %4 = and i32 %3, -1431655766
  %5 = lshr i32 %4, 1
  %6 = load i32, ptr %2, align 4, !tbaa !8
  %7 = and i32 %6, 1431655765
  %8 = shl i32 %7, 1
  %9 = or i32 %5, %8
  store i32 %9, ptr %2, align 4, !tbaa !8
  %10 = load i32, ptr %2, align 4, !tbaa !8
  %11 = and i32 %10, -858993460
  %12 = lshr i32 %11, 2
  %13 = load i32, ptr %2, align 4, !tbaa !8
  %14 = and i32 %13, 858993459
  %15 = shl i32 %14, 2
  %16 = or i32 %12, %15
  store i32 %16, ptr %2, align 4, !tbaa !8
  %17 = load i32, ptr %2, align 4, !tbaa !8
  %18 = and i32 %17, -252645136
  %19 = lshr i32 %18, 4
  %20 = load i32, ptr %2, align 4, !tbaa !8
  %21 = and i32 %20, 252645135
  %22 = shl i32 %21, 4
  %23 = or i32 %19, %22
  store i32 %23, ptr %2, align 4, !tbaa !8
  %24 = load i32, ptr %2, align 4, !tbaa !8
  %25 = and i32 %24, -16711936
  %26 = lshr i32 %25, 8
  %27 = load i32, ptr %2, align 4, !tbaa !8
  %28 = and i32 %27, 16711935
  %29 = shl i32 %28, 8
  %30 = or i32 %26, %29
  store i32 %30, ptr %2, align 4, !tbaa !8
  %31 = load i32, ptr %2, align 4, !tbaa !8
  %32 = lshr i32 %31, 16
  %33 = load i32, ptr %2, align 4, !tbaa !8
  %34 = shl i32 %33, 16
  %35 = or i32 %32, %34
  ret i32 %35
}

; Function Attrs: nounwind uwtable
define void @compute_accelerated_huffman(ptr noundef %0) #0 {
  %2 = alloca ptr, align 8
  %3 = alloca i32, align 4
  %4 = alloca i32, align 4
  %5 = alloca i32, align 4
  store ptr %0, ptr %2, align 8, !tbaa !18
  call void @llvm.lifetime.start.p0(i64 4, ptr %3) #11
  call void @llvm.lifetime.start.p0(i64 4, ptr %4) #11
  store i32 0, ptr %3, align 4, !tbaa !8
  br label %6

6:                                                ; preds = %15, %1
  %7 = load i32, ptr %3, align 4, !tbaa !8
  %8 = icmp slt i32 %7, 1024
  br i1 %8, label %9, label %18

9:                                                ; preds = %6
  %10 = load ptr, ptr %2, align 8, !tbaa !18
  %11 = getelementptr inbounds nuw %struct.Codebook, ptr %10, i32 0, i32 12
  %12 = load i32, ptr %3, align 4, !tbaa !8
  %13 = sext i32 %12 to i64
  %14 = getelementptr inbounds [1024 x i16], ptr %11, i64 0, i64 %13
  store i16 -1, ptr %14, align 2, !tbaa !45
  br label %15

15:                                               ; preds = %9
  %16 = load i32, ptr %3, align 4, !tbaa !8
  %17 = add nsw i32 %16, 1
  store i32 %17, ptr %3, align 4, !tbaa !8
  br label %6, !llvm.loop !47

18:                                               ; preds = %6
  %19 = load ptr, ptr %2, align 8, !tbaa !18
  %20 = getelementptr inbounds nuw %struct.Codebook, ptr %19, i32 0, i32 8
  %21 = load i8, ptr %20, align 1, !tbaa !35
  %22 = zext i8 %21 to i32
  %23 = icmp ne i32 %22, 0
  br i1 %23, label %24, label %28

24:                                               ; preds = %18
  %25 = load ptr, ptr %2, align 8, !tbaa !18
  %26 = getelementptr inbounds nuw %struct.Codebook, ptr %25, i32 0, i32 15
  %27 = load i32, ptr %26, align 8, !tbaa !48
  br label %32

28:                                               ; preds = %18
  %29 = load ptr, ptr %2, align 8, !tbaa !18
  %30 = getelementptr inbounds nuw %struct.Codebook, ptr %29, i32 0, i32 1
  %31 = load i32, ptr %30, align 4, !tbaa !49
  br label %32

32:                                               ; preds = %28, %24
  %33 = phi i32 [ %27, %24 ], [ %31, %28 ]
  store i32 %33, ptr %4, align 4, !tbaa !8
  %34 = load i32, ptr %4, align 4, !tbaa !8
  %35 = icmp sgt i32 %34, 32767
  br i1 %35, label %36, label %37

36:                                               ; preds = %32
  store i32 32767, ptr %4, align 4, !tbaa !8
  br label %37

37:                                               ; preds = %36, %32
  store i32 0, ptr %3, align 4, !tbaa !8
  br label %38

38:                                               ; preds = %101, %37
  %39 = load i32, ptr %3, align 4, !tbaa !8
  %40 = load i32, ptr %4, align 4, !tbaa !8
  %41 = icmp slt i32 %39, %40
  br i1 %41, label %42, label %104

42:                                               ; preds = %38
  %43 = load ptr, ptr %2, align 8, !tbaa !18
  %44 = getelementptr inbounds nuw %struct.Codebook, ptr %43, i32 0, i32 2
  %45 = load ptr, ptr %44, align 8, !tbaa !39
  %46 = load i32, ptr %3, align 4, !tbaa !8
  %47 = sext i32 %46 to i64
  %48 = getelementptr inbounds i8, ptr %45, i64 %47
  %49 = load i8, ptr %48, align 1, !tbaa !30
  %50 = zext i8 %49 to i32
  %51 = icmp sle i32 %50, 10
  br i1 %51, label %52, label %100

52:                                               ; preds = %42
  call void @llvm.lifetime.start.p0(i64 4, ptr %5) #11
  %53 = load ptr, ptr %2, align 8, !tbaa !18
  %54 = getelementptr inbounds nuw %struct.Codebook, ptr %53, i32 0, i32 8
  %55 = load i8, ptr %54, align 1, !tbaa !35
  %56 = zext i8 %55 to i32
  %57 = icmp ne i32 %56, 0
  br i1 %57, label %58, label %67

58:                                               ; preds = %52
  %59 = load ptr, ptr %2, align 8, !tbaa !18
  %60 = getelementptr inbounds nuw %struct.Codebook, ptr %59, i32 0, i32 13
  %61 = load ptr, ptr %60, align 8, !tbaa !50
  %62 = load i32, ptr %3, align 4, !tbaa !8
  %63 = sext i32 %62 to i64
  %64 = getelementptr inbounds i32, ptr %61, i64 %63
  %65 = load i32, ptr %64, align 4, !tbaa !8
  %66 = call i32 @bit_reverse(i32 noundef %65)
  br label %75

67:                                               ; preds = %52
  %68 = load ptr, ptr %2, align 8, !tbaa !18
  %69 = getelementptr inbounds nuw %struct.Codebook, ptr %68, i32 0, i32 11
  %70 = load ptr, ptr %69, align 8, !tbaa !38
  %71 = load i32, ptr %3, align 4, !tbaa !8
  %72 = sext i32 %71 to i64
  %73 = getelementptr inbounds i32, ptr %70, i64 %72
  %74 = load i32, ptr %73, align 4, !tbaa !8
  br label %75

75:                                               ; preds = %67, %58
  %76 = phi i32 [ %66, %58 ], [ %74, %67 ]
  store i32 %76, ptr %5, align 4, !tbaa !8
  br label %77

77:                                               ; preds = %80, %75
  %78 = load i32, ptr %5, align 4, !tbaa !8
  %79 = icmp ult i32 %78, 1024
  br i1 %79, label %80, label %99

80:                                               ; preds = %77
  %81 = load i32, ptr %3, align 4, !tbaa !8
  %82 = trunc i32 %81 to i16
  %83 = load ptr, ptr %2, align 8, !tbaa !18
  %84 = getelementptr inbounds nuw %struct.Codebook, ptr %83, i32 0, i32 12
  %85 = load i32, ptr %5, align 4, !tbaa !8
  %86 = zext i32 %85 to i64
  %87 = getelementptr inbounds nuw [1024 x i16], ptr %84, i64 0, i64 %86
  store i16 %82, ptr %87, align 2, !tbaa !45
  %88 = load ptr, ptr %2, align 8, !tbaa !18
  %89 = getelementptr inbounds nuw %struct.Codebook, ptr %88, i32 0, i32 2
  %90 = load ptr, ptr %89, align 8, !tbaa !39
  %91 = load i32, ptr %3, align 4, !tbaa !8
  %92 = sext i32 %91 to i64
  %93 = getelementptr inbounds i8, ptr %90, i64 %92
  %94 = load i8, ptr %93, align 1, !tbaa !30
  %95 = zext i8 %94 to i32
  %96 = shl i32 1, %95
  %97 = load i32, ptr %5, align 4, !tbaa !8
  %98 = add i32 %97, %96
  store i32 %98, ptr %5, align 4, !tbaa !8
  br label %77, !llvm.loop !51

99:                                               ; preds = %77
  call void @llvm.lifetime.end.p0(i64 4, ptr %5) #11
  br label %100

100:                                              ; preds = %99, %42
  br label %101

101:                                              ; preds = %100
  %102 = load i32, ptr %3, align 4, !tbaa !8
  %103 = add nsw i32 %102, 1
  store i32 %103, ptr %3, align 4, !tbaa !8
  br label %38, !llvm.loop !52

104:                                              ; preds = %38
  call void @llvm.lifetime.end.p0(i64 4, ptr %4) #11
  call void @llvm.lifetime.end.p0(i64 4, ptr %3) #11
  ret void
}