; Function Attrs: nofree norecurse nosync nounwind memory(read, argmem: readwrite, inaccessiblemem: none) uwtable
define void @compute_accelerated_huffman(ptr noundef captures(none) initializes((48, 2096)) %0) local_unnamed_addr #15 {
  %2 = getelementptr inbounds nuw i8, ptr %0, i64 48
  tail call void @llvm.memset.p0.i64(ptr noundef nonnull align 2 dereferenceable(2048) %2, i8 -1, i64 2048, i1 false), !tbaa !36
  %3 = getelementptr inbounds nuw i8, ptr %0, i64 27
  %4 = load i8, ptr %3, align 1, !tbaa !24
  %.fr = freeze i8 %4
  %.not = icmp eq i8 %.fr, 0
  %.in.v = select i1 %.not, i64 4, i64 2112
  %.in = getelementptr inbounds nuw i8, ptr %0, i64 %.in.v
  %5 = load i32, ptr %.in, align 4, !tbaa !21
  %6 = icmp sgt i32 %5, 0
  br i1 %6, label %.lr.ph30, label %._crit_edge

.lr.ph30:                                         ; preds = %1
  %spec.store.select = tail call i32 @llvm.smin.i32(i32 %5, i32 32767)
  %7 = getelementptr inbounds nuw i8, ptr %0, i64 8
  %8 = load ptr, ptr %7, align 8, !tbaa !30
  %9 = getelementptr inbounds nuw i8, ptr %0, i64 2096
  %10 = getelementptr inbounds nuw i8, ptr %0, i64 40
  %wide.trip.count37 = zext nneg i32 %spec.store.select to i64
  br i1 %.not, label %.lr.ph30.split.us, label %.lr.ph30.split

.lr.ph30.split.us:                                ; preds = %.lr.ph30, %.loopexit.us
  %indvars.iv34 = phi i64 [ %indvars.iv.next35, %.loopexit.us ], [ 0, %.lr.ph30 ]
  %11 = getelementptr inbounds nuw i8, ptr %8, i64 %indvars.iv34
  %12 = load i8, ptr %11, align 1, !tbaa !23
  %13 = icmp ult i8 %12, 11
  br i1 %13, label %14, label %.loopexit.us

14:                                               ; preds = %.lr.ph30.split.us
  %15 = load ptr, ptr %10, align 8, !tbaa !29
  %16 = getelementptr inbounds nuw i32, ptr %15, i64 %indvars.iv34
  %17 = load i32, ptr %16, align 4, !tbaa !21
  %18 = icmp ult i32 %17, 1024
  br i1 %18, label %.lr.ph.us, label %.loopexit.us

.loopexit.us:                                     ; preds = %19, %14, %.lr.ph30.split.us
  %indvars.iv.next35 = add nuw nsw i64 %indvars.iv34, 1
  %exitcond38.not = icmp eq i64 %indvars.iv.next35, %wide.trip.count37
  br i1 %exitcond38.not, label %._crit_edge, label %.lr.ph30.split.us, !llvm.loop !38

19:                                               ; preds = %.lr.ph.us, %19
  %.027.us = phi i32 [ %17, %.lr.ph.us ], [ %25, %19 ]
  %20 = zext nneg i32 %.027.us to i64
  %21 = getelementptr inbounds nuw [1024 x i16], ptr %2, i64 0, i64 %20
  store i16 %27, ptr %21, align 2, !tbaa !36
  %22 = load i8, ptr %11, align 1, !tbaa !23
  %23 = zext nneg i8 %22 to i32
  %24 = shl nuw i32 1, %23
  %25 = add nuw i32 %24, %.027.us
  %26 = icmp ult i32 %25, 1024
  br i1 %26, label %19, label %.loopexit.us, !llvm.loop !39

.lr.ph.us:                                        ; preds = %14
  %27 = trunc i64 %indvars.iv34 to i16
  br label %19

.lr.ph30.split:                                   ; preds = %.lr.ph30, %.loopexit
  %indvars.iv = phi i64 [ %indvars.iv.next, %.loopexit ], [ 0, %.lr.ph30 ]
  %28 = getelementptr inbounds nuw i8, ptr %8, i64 %indvars.iv
  %29 = load i8, ptr %28, align 1, !tbaa !23
  %30 = icmp ult i8 %29, 11
  br i1 %30, label %31, label %.loopexit

31:                                               ; preds = %.lr.ph30.split
  %32 = load ptr, ptr %9, align 8, !tbaa !40
  %33 = getelementptr inbounds nuw i32, ptr %32, i64 %indvars.iv
  %34 = load i32, ptr %33, align 4, !tbaa !21
  %35 = tail call noundef i32 @llvm.bitreverse.i32(i32 %34)
  %36 = icmp ult i32 %35, 1024
  br i1 %36, label %.lr.ph, label %.loopexit

.lr.ph:                                           ; preds = %31
  %37 = trunc i64 %indvars.iv to i16
  br label %38

38:                                               ; preds = %.lr.ph, %38
  %.027 = phi i32 [ %35, %.lr.ph ], [ %44, %38 ]
  %39 = zext nneg i32 %.027 to i64
  %40 = getelementptr inbounds nuw [1024 x i16], ptr %2, i64 0, i64 %39
  store i16 %37, ptr %40, align 2, !tbaa !36
  %41 = load i8, ptr %28, align 1, !tbaa !23
  %42 = zext nneg i8 %41 to i32
  %43 = shl nuw i32 1, %42
  %44 = add nuw i32 %43, %.027
  %45 = icmp ult i32 %44, 1024
  br i1 %45, label %38, label %.loopexit, !llvm.loop !39

.loopexit:                                        ; preds = %38, %31, %.lr.ph30.split
  %indvars.iv.next = add nuw nsw i64 %indvars.iv, 1
  %exitcond.not = icmp eq i64 %indvars.iv.next, %wide.trip.count37
  br i1 %exitcond.not, label %._crit_edge, label %.lr.ph30.split, !llvm.loop !38

._crit_edge:                                      ; preds = %.loopexit, %.loopexit.us, %1
  ret void
}